; Function Attrs: mustprogress uwtable
define void @_ZN6google8protobuf9EnumValue12InternalSwapEPS1_(ptr noundef nonnull align 8 dereferenceable(56) %this, ptr noalias noundef %other) local_unnamed_addr #3 align 2 {
entry:
  %_internal_metadata_.i = getelementptr inbounds i8, ptr %this, i64 8
  %0 = load i64, ptr %_internal_metadata_.i, align 8
  %_internal_metadata_3 = getelementptr inbounds i8, ptr %other, i64 8
  %1 = load i64, ptr %_internal_metadata_3, align 8
  store i64 %1, ptr %_internal_metadata_.i, align 8
  store i64 %0, ptr %_internal_metadata_3, align 8
  %2 = getelementptr inbounds i8, ptr %this, i64 16
  %3 = getelementptr inbounds i8, ptr %other, i64 16
  tail call void @_ZN6google8protobuf8internal7memswapILm16EEEvPcS3_(ptr noundef nonnull %2, ptr noundef nonnull %3)
  %name_ = getelementptr inbounds i8, ptr %this, i64 40
  %name_5 = getelementptr inbounds i8, ptr %other, i64 40
  %__tmp.sroa.0.0.copyload.i = load ptr, ptr %name_5, align 8
  %4 = load i64, ptr %name_, align 8
  store i64 %4, ptr %name_5, align 8
  store ptr %__tmp.sroa.0.0.copyload.i, ptr %name_, align 8
  %number_ = getelementptr inbounds i8, ptr %this, i64 48
  %number_6 = getelementptr inbounds i8, ptr %other, i64 48
  %5 = load i32, ptr %number_, align 8
  %6 = load i32, ptr %number_6, align 4
  store i32 %6, ptr %number_, align 8
  store i32 %5, ptr %number_6, align 4
  ret void
}